; Function Attrs: mustprogress uwtable
define void @_ZN7Archive15ConvertNameCaseEPw(ptr nocapture noundef nonnull readonly align 8 dereferenceable(57108) %0, ptr noundef %1) local_unnamed_addr #0 align 2 {
  %3 = getelementptr inbounds i8, ptr %0, i64 11056
  %4 = load ptr, ptr %3, align 8
  %5 = getelementptr inbounds i8, ptr %4, i64 57484
  %6 = load i32, ptr %5, align 4
  %7 = icmp eq i32 %6, 1
  br i1 %7, label %8, label %10

8:                                                ; preds = %2
  %9 = tail call noundef ptr @_Z8wcsupperPw(ptr noundef %1)
  %.pre = load ptr, ptr %3, align 8
  %.phi.trans.insert = getelementptr inbounds i8, ptr %.pre, i64 57484
  %.pre3 = load i32, ptr %.phi.trans.insert, align 4
  br label %10

10:                                               ; preds = %8, %2
  %11 = phi i32 [ %.pre3, %8 ], [ %6, %2 ]
  %12 = icmp eq i32 %11, 2
  br i1 %12, label %13, label %15

13:                                               ; preds = %10
  %14 = tail call noundef ptr @_Z8wcslowerPw(ptr noundef %1)
  br label %15

15:                                               ; preds = %13, %10
  ret void
}